; Function Attrs: mustprogress nofree norecurse nosync nounwind willreturn memory(argmem: read) uwtable
define dso_local noundef i32 @_ZN4llvm5APInt5tcMSBEPKmj(ptr noundef readonly captures(none) %0, i32 noundef %1) local_unnamed_addr #7 align 2 {
  br label %3

3:                                                ; preds = %14, %2
  %.08 = phi i32 [ %1, %2 ], [ %4, %14 ]
  %4 = add i32 %.08, -1
  %5 = zext i32 %4 to i64
  %6 = getelementptr inbounds nuw i64, ptr %0, i64 %5
  %7 = load i64, ptr %6, align 8
  %.not = icmp eq i64 %7, 0
  br i1 %.not, label %14, label %8

8:                                                ; preds = %3
  %9 = tail call range(i64 0, 65) i64 @llvm.ctlz.i64(i64 %7, i1 true)
  %10 = trunc nuw nsw i64 %9 to i32
  %11 = shl i32 %4, 6
  %12 = or disjoint i32 %11, %10
  %13 = xor i32 %12, 63
  br label %.loopexit

14:                                               ; preds = %3
  %.not11 = icmp eq i32 %4, 0
  br i1 %.not11, label %.loopexit, label %3, !llvm.loop !355

.loopexit:                                        ; preds = %14, %8
  %.0 = phi i32 [ %13, %8 ], [ -1, %14 ]
  ret i32 %.0
}